target datalayout = "e-m:e-p270:32:32-p271:32:32-p272:64:64-i64:64-i128:128-f80:128-n8:16:32:64-S128"
target triple = "x86_64-pc-linux-gnu"

%struct.AVCodecContext = type { ptr, i32, i32, ptr, i32, i32, ptr, ptr, ptr, i64, i32, i32, ptr, i32, %struct.AVRational, %struct.AVRational, %struct.AVRational, i32, i32, i32, i32, i32, %struct.AVRational, i32, i32, i32, i32, i32, i32, i32, i32, i32, i32, i32, ptr, ptr, i32, float, float, float, float, float, float, float, float, float, i32, i32, i32, i32, i32, i32, i32, i32, i32, i32, i32, i32, ptr, ptr, ptr, i32, i32, i32, i32, i32, i32, i32, i32, i32, i32, %struct.AVChannelLayout, i32, i32, i32, i32, i32, i32, i32, i32, ptr, i32, i32, i32, float, float, i32, i32, i32, i32, i32, ptr, i64, i64, float, float, i32, i32, ptr, ptr, i32, i32, i32, i32, i32, ptr, ptr, ptr, ptr, i32, i32, [8 x i64], i32, i32, i32, i32, i32, i32, i32, ptr, ptr, i32, i32, i32, i32, i32, i32, i32, i32, i32, i32, ptr, ptr, i32, i32, ptr, ptr, ptr, ptr, i32, i32, i64, i32, i32, i64, ptr, i64, ptr, i32, ptr, i32 }
%struct.AVRational = type { i32, i32 }
%struct.AVChannelLayout = type { i32, i32, %union.anon.0, ptr }
%union.anon.0 = type { i64 }
%struct.AVRnContext = type { i32, i32 }

@.str.2 = private unnamed_addr constant [5 x i8] c"1:1(\00", align 1

; Function Attrs: cold nounwind optsize uwtable
define internal i32 @init(ptr noundef %0) #0 {
  %2 = alloca i32, align 4
  %3 = alloca ptr, align 8
  %4 = alloca ptr, align 8
  %5 = alloca i32, align 4
  %6 = alloca i32, align 4
  %7 = alloca i32, align 4
  store ptr %0, ptr %3, align 8, !tbaa !4
  call void @llvm.lifetime.start.p0(i64 8, ptr %4) #6
  %8 = load ptr, ptr %3, align 8, !tbaa !4
  %9 = getelementptr inbounds nuw %struct.AVCodecContext, ptr %8, i32 0, i32 6
  %10 = load ptr, ptr %9, align 8, !tbaa !9
  store ptr %10, ptr %4, align 8, !tbaa !29
  call void @llvm.lifetime.start.p0(i64 4, ptr %5) #6
  %11 = load ptr, ptr %3, align 8, !tbaa !4
  %12 = getelementptr inbounds nuw %struct.AVCodecContext, ptr %11, i32 0, i32 18
  %13 = load i32, ptr %12, align 8, !tbaa !30
  %14 = load ptr, ptr %3, align 8, !tbaa !4
  %15 = getelementptr inbounds nuw %struct.AVCodecContext, ptr %14, i32 0, i32 19
  %16 = load i32, ptr %15, align 4, !tbaa !31
  %17 = load ptr, ptr %3, align 8, !tbaa !4
  %18 = call i32 @av_image_check_size(i32 noundef %13, i32 noundef %16, i32 noundef 0, ptr noundef %17)
  store i32 %18, ptr %5, align 4, !tbaa !32
  %19 = icmp slt i32 %18, 0
  br i1 %19, label %20, label %22

20:                                               ; preds = %1
  %21 = load i32, ptr %5, align 4, !tbaa !32
  store i32 %21, ptr %2, align 4
  store i32 1, ptr %6, align 4
  br label %81

22:                                               ; preds = %1
  %23 = load ptr, ptr %3, align 8, !tbaa !4
  %24 = getelementptr inbounds nuw %struct.AVCodecContext, ptr %23, i32 0, i32 23
  store i32 15, ptr %24, align 8, !tbaa !33
  %25 = load ptr, ptr %3, align 8, !tbaa !4
  %26 = getelementptr inbounds nuw %struct.AVCodecContext, ptr %25, i32 0, i32 13
  %27 = load i32, ptr %26, align 8, !tbaa !34
  %28 = icmp sge i32 %27, 9
  br i1 %28, label %29, label %80

29:                                               ; preds = %22
  %30 = load ptr, ptr %3, align 8, !tbaa !4
  %31 = getelementptr inbounds nuw %struct.AVCodecContext, ptr %30, i32 0, i32 12
  %32 = load ptr, ptr %31, align 8, !tbaa !35
  %33 = getelementptr inbounds i8, ptr %32, i64 4
  %34 = load i8, ptr %33, align 1, !tbaa !36
  %35 = zext i8 %34 to i32
  %36 = add nsw i32 %35, 28
  %37 = load ptr, ptr %3, align 8, !tbaa !4
  %38 = getelementptr inbounds nuw %struct.AVCodecContext, ptr %37, i32 0, i32 13
  %39 = load i32, ptr %38, align 8, !tbaa !34
  %40 = icmp slt i32 %36, %39
  br i1 %40, label %41, label %80

41:                                               ; preds = %29
  call void @llvm.lifetime.start.p0(i64 4, ptr %7) #6
  %42 = load ptr, ptr %3, align 8, !tbaa !4
  %43 = getelementptr inbounds nuw %struct.AVCodecContext, ptr %42, i32 0, i32 12
  %44 = load ptr, ptr %43, align 8, !tbaa !35
  %45 = getelementptr inbounds i8, ptr %44, i64 4
  %46 = load i8, ptr %45, align 1, !tbaa !36
  %47 = zext i8 %46 to i32
  %48 = add nsw i32 %47, 4
  store i32 %48, ptr %7, align 4, !tbaa !32
  %49 = load ptr, ptr %3, align 8, !tbaa !4
  %50 = getelementptr inbounds nuw %struct.AVCodecContext, ptr %49, i32 0, i32 12
  %51 = load ptr, ptr %50, align 8, !tbaa !35
  %52 = load i32, ptr %7, align 4, !tbaa !32
  %53 = sext i32 %52 to i64
  %54 = getelementptr inbounds i8, ptr %51, i64 %53
  %55 = call i32 @memcmp(ptr noundef %54, ptr noundef @.str.2, i64 noundef 4) #7
  %56 = icmp ne i32 %55, 0
  %57 = xor i1 %56, true
  %58 = zext i1 %57 to i32
  %59 = load ptr, ptr %4, align 8, !tbaa !29
  %60 = getelementptr inbounds nuw %struct.AVRnContext, ptr %59, i32 0, i32 0
  store i32 %58, ptr %60, align 4, !tbaa !37
  %61 = load ptr, ptr %4, align 8, !tbaa !29
  %62 = getelementptr inbounds nuw %struct.AVRnContext, ptr %61, i32 0, i32 0
  %63 = load i32, ptr %62, align 4, !tbaa !37
  %64 = icmp ne i32 %63, 0
  br i1 %64, label %65, label %79

65:                                               ; preds = %41
  %66 = load ptr, ptr %3, align 8, !tbaa !4
  %67 = getelementptr inbounds nuw %struct.AVCodecContext, ptr %66, i32 0, i32 12
  %68 = load ptr, ptr %67, align 8, !tbaa !35
  %69 = load i32, ptr %7, align 4, !tbaa !32
  %70 = add nsw i32 %69, 24
  %71 = sext i32 %70 to i64
  %72 = getelementptr inbounds i8, ptr %68, i64 %71
  %73 = load i8, ptr %72, align 1, !tbaa !36
  %74 = zext i8 %73 to i32
  %75 = icmp eq i32 %74, 1
  %76 = zext i1 %75 to i32
  %77 = load ptr, ptr %4, align 8, !tbaa !29
  %78 = getelementptr inbounds nuw %struct.AVRnContext, ptr %77, i32 0, i32 1
  store i32 %76, ptr %78, align 4, !tbaa !39
  br label %79

79:                                               ; preds = %65, %41
  call void @llvm.lifetime.end.p0(i64 4, ptr %7) #6
  br label %80

80:                                               ; preds = %79, %29, %22
  store i32 0, ptr %2, align 4
  store i32 1, ptr %6, align 4
  br label %81

81:                                               ; preds = %80, %20
  call void @llvm.lifetime.end.p0(i64 4, ptr %5) #6
  call void @llvm.lifetime.end.p0(i64 8, ptr %4) #6
  %82 = load i32, ptr %2, align 4
  ret i32 %82
}