; Function Attrs: cold nounwind optsize uwtable
define internal range(i32 -2147483648, 1) i32 @init(ptr noundef %0) #0 {
  %2 = getelementptr inbounds nuw i8, ptr %0, i64 32
  %3 = load ptr, ptr %2, align 8, !tbaa !4
  %4 = getelementptr inbounds nuw i8, ptr %0, i64 112
  %5 = load i32, ptr %4, align 8, !tbaa !27
  %6 = getelementptr inbounds nuw i8, ptr %0, i64 116
  %7 = load i32, ptr %6, align 4, !tbaa !28
  %8 = tail call i32 @av_image_check_size(i32 noundef %5, i32 noundef %7, i32 noundef 0, ptr noundef %0) #5
  %9 = icmp slt i32 %8, 0
  br i1 %9, label %34, label %10

10:                                               ; preds = %1
  %11 = getelementptr inbounds nuw i8, ptr %0, i64 136
  store i32 15, ptr %11, align 8, !tbaa !29
  %12 = getelementptr inbounds nuw i8, ptr %0, i64 80
  %13 = load i32, ptr %12, align 8, !tbaa !30
  %14 = icmp sgt i32 %13, 8
  br i1 %14, label %15, label %34

15:                                               ; preds = %10
  %16 = getelementptr inbounds nuw i8, ptr %0, i64 72
  %17 = load ptr, ptr %16, align 8, !tbaa !31
  %18 = getelementptr inbounds nuw i8, ptr %17, i64 4
  %19 = load i8, ptr %18, align 1, !tbaa !32
  %20 = zext i8 %19 to i32
  %21 = add nuw nsw i32 %20, 28
  %22 = icmp samesign ult i32 %21, %13
  br i1 %22, label %23, label %34

23:                                               ; preds = %15
  %24 = zext i8 %19 to i64
  %25 = getelementptr inbounds nuw i8, ptr %17, i64 %24
  %26 = getelementptr inbounds nuw i8, ptr %25, i64 4
  %bcmp = tail call i32 @bcmp(ptr noundef nonnull dereferenceable(4) %26, ptr noundef nonnull dereferenceable(4) @.str.2, i64 4)
  %.not = icmp eq i32 %bcmp, 0
  %27 = zext i1 %.not to i32
  store i32 %27, ptr %3, align 4, !tbaa !33
  br i1 %.not, label %28, label %34

28:                                               ; preds = %23
  %29 = getelementptr inbounds nuw i8, ptr %25, i64 28
  %30 = load i8, ptr %29, align 1, !tbaa !32
  %31 = icmp eq i8 %30, 1
  %32 = zext i1 %31 to i32
  %33 = getelementptr inbounds nuw i8, ptr %3, i64 4
  store i32 %32, ptr %33, align 4, !tbaa !35
  br label %34

34:                                               ; preds = %10, %15, %28, %23, %1
  %.0 = phi i32 [ %8, %1 ], [ 0, %23 ], [ 0, %28 ], [ 0, %15 ], [ 0, %10 ]
  ret i32 %.0
}